target datalayout = "e-m:e-p270:32:32-p271:32:32-p272:64:64-i64:64-i128:128-f80:128-n8:16:32:64-S128"
target triple = "x86_64-pc-linux-gnu"

%struct.expert_field = type { i32, i32 }

@hf_pfcp_timer_unit = internal global i32 0, align 4
@hf_pfcp_timer_value = internal global i32 0, align 4
@ei_pfcp_ie_data_not_decoded = internal global %struct.expert_field zeroinitializer, align 4
@.str.2659 = private unnamed_addr constant [5 x i8] c"%u s\00", align 1
@.str.2661 = private unnamed_addr constant [9 x i8] c" Stopped\00", align 1
@.str.2662 = private unnamed_addr constant [7 x i8] c"%u min\00", align 1
@.str.2663 = private unnamed_addr constant [9 x i8] c"%u hours\00", align 1
@.str.2664 = private unnamed_addr constant [14 x i8] c"Infinite (%u)\00", align 1

; Function Attrs: null_pointer_is_valid sspstrong uwtable
define internal void @dissect_pfcp_dl_buffering_dur(ptr noundef %0, ptr noundef %1, ptr noundef %2, ptr noundef %3, i16 noundef zeroext %4, i8 noundef zeroext %5, ptr noundef %6) #0 {
  %8 = alloca ptr, align 8
  %9 = alloca ptr, align 8
  %10 = alloca ptr, align 8
  %11 = alloca ptr, align 8
  %12 = alloca i16, align 2
  %13 = alloca i8, align 1
  %14 = alloca ptr, align 8
  %15 = alloca i32, align 4
  %16 = alloca i32, align 4
  %17 = alloca i32, align 4
  store ptr %0, ptr %8, align 8
  store ptr %1, ptr %9, align 8
  store ptr %2, ptr %10, align 8
  store ptr %3, ptr %11, align 8
  store i16 %4, ptr %12, align 2
  store i8 %5, ptr %13, align 1
  store ptr %6, ptr %14, align 8
  call void @llvm.lifetime.start.p0(i64 4, ptr %15) #13
  store i32 0, ptr %15, align 4
  call void @llvm.lifetime.start.p0(i64 4, ptr %16) #13
  call void @llvm.lifetime.start.p0(i64 4, ptr %17) #13
  %18 = load ptr, ptr %10, align 8
  %19 = load i32, ptr @hf_pfcp_timer_unit, align 4
  %20 = load ptr, ptr %8, align 8
  %21 = load i32, ptr %15, align 4
  %22 = call ptr @proto_tree_add_item_ret_uint(ptr noundef %18, i32 noundef %19, ptr noundef %20, i32 noundef %21, i32 noundef 1, i32 noundef 0, ptr noundef %16)
  %23 = load ptr, ptr %10, align 8
  %24 = load i32, ptr @hf_pfcp_timer_value, align 4
  %25 = load ptr, ptr %8, align 8
  %26 = load i32, ptr %15, align 4
  %27 = call ptr @proto_tree_add_item_ret_uint(ptr noundef %23, i32 noundef %24, ptr noundef %25, i32 noundef %26, i32 noundef 1, i32 noundef 0, ptr noundef %17)
  %28 = load i32, ptr %15, align 4
  %29 = add i32 %28, 1
  store i32 %29, ptr %15, align 4
  %30 = load i32, ptr %16, align 4
  %31 = icmp eq i32 %30, 0
  br i1 %31, label %32, label %37

32:                                               ; preds = %7
  %33 = load i32, ptr %17, align 4
  %34 = icmp eq i32 %33, 0
  br i1 %34, label %35, label %37

35:                                               ; preds = %32
  %36 = load ptr, ptr %11, align 8
  call void (ptr, ptr, ...) @proto_item_append_text(ptr noundef %36, ptr noundef @.str.2661)
  br label %64

37:                                               ; preds = %32, %7
  %38 = load i32, ptr %16, align 4
  switch i32 %38, label %60 [
    i32 0, label %39
    i32 1, label %43
    i32 2, label %46
    i32 3, label %50
    i32 4, label %53
    i32 7, label %57
  ]

39:                                               ; preds = %37
  %40 = load ptr, ptr %11, align 8
  %41 = load i32, ptr %17, align 4
  %42 = mul i32 %41, 2
  call void (ptr, ptr, ...) @proto_item_append_text(ptr noundef %40, ptr noundef @.str.2659, i32 noundef %42)
  br label %63

43:                                               ; preds = %37
  %44 = load ptr, ptr %11, align 8
  %45 = load i32, ptr %17, align 4
  call void (ptr, ptr, ...) @proto_item_append_text(ptr noundef %44, ptr noundef @.str.2662, i32 noundef %45)
  br label %63

46:                                               ; preds = %37
  %47 = load ptr, ptr %11, align 8
  %48 = load i32, ptr %17, align 4
  %49 = mul i32 %48, 10
  call void (ptr, ptr, ...) @proto_item_append_text(ptr noundef %47, ptr noundef @.str.2662, i32 noundef %49)
  br label %63

50:                                               ; preds = %37
  %51 = load ptr, ptr %11, align 8
  %52 = load i32, ptr %17, align 4
  call void (ptr, ptr, ...) @proto_item_append_text(ptr noundef %51, ptr noundef @.str.2663, i32 noundef %52)
  br label %63

53:                                               ; preds = %37
  %54 = load ptr, ptr %11, align 8
  %55 = load i32, ptr %17, align 4
  %56 = mul i32 %55, 10
  call void (ptr, ptr, ...) @proto_item_append_text(ptr noundef %54, ptr noundef @.str.2663, i32 noundef %56)
  br label %63

57:                                               ; preds = %37
  %58 = load ptr, ptr %11, align 8
  %59 = load i32, ptr %17, align 4
  call void (ptr, ptr, ...) @proto_item_append_text(ptr noundef %58, ptr noundef @.str.2664, i32 noundef %59)
  br label %63

60:                                               ; preds = %37
  %61 = load ptr, ptr %11, align 8
  %62 = load i32, ptr %17, align 4
  call void (ptr, ptr, ...) @proto_item_append_text(ptr noundef %61, ptr noundef @.str.2662, i32 noundef %62)
  br label %63

63:                                               ; preds = %60, %57, %53, %50, %46, %43, %39
  br label %64

64:                                               ; preds = %63, %35
  %65 = load i32, ptr %15, align 4
  %66 = load i16, ptr %12, align 2
  %67 = zext i16 %66 to i32
  %68 = icmp slt i32 %65, %67
  br i1 %68, label %69, label %75

69:                                               ; preds = %64
  %70 = load ptr, ptr %10, align 8
  %71 = load ptr, ptr %9, align 8
  %72 = load ptr, ptr %8, align 8
  %73 = load i32, ptr %15, align 4
  %74 = call ptr @proto_tree_add_expert(ptr noundef %70, ptr noundef %71, ptr noundef @ei_pfcp_ie_data_not_decoded, ptr noundef %72, i32 noundef %73, i32 noundef -1)
  br label %75

75:                                               ; preds = %69, %64
  call void @llvm.lifetime.end.p0(i64 4, ptr %17) #13
  call void @llvm.lifetime.end.p0(i64 4, ptr %16) #13
  call void @llvm.lifetime.end.p0(i64 4, ptr %15) #13
  ret void
}