; Function Attrs: null_pointer_is_valid sspstrong uwtable
define internal void @dissect_pfcp_dl_buffering_dur(ptr noundef %0, ptr noundef %1, ptr noundef %2, ptr noundef %3, i16 noundef zeroext %4, i8 zeroext %5, ptr readnone captures(none) %6) #0 {
  %8 = alloca i32, align 4
  %9 = alloca i32, align 4
  call void @llvm.lifetime.start.p0(i64 4, ptr nonnull %8) #15
  call void @llvm.lifetime.start.p0(i64 4, ptr nonnull %9) #15
  %10 = load i32, ptr @hf_pfcp_timer_unit, align 4
  %11 = call ptr @proto_tree_add_item_ret_uint(ptr noundef %2, i32 noundef %10, ptr noundef %0, i32 noundef 0, i32 noundef 1, i32 noundef 0, ptr noundef nonnull %8)
  %12 = load i32, ptr @hf_pfcp_timer_value, align 4
  %13 = call ptr @proto_tree_add_item_ret_uint(ptr noundef %2, i32 noundef %12, ptr noundef %0, i32 noundef 0, i32 noundef 1, i32 noundef 0, ptr noundef nonnull %9)
  %14 = load i32, ptr %8, align 4
  %15 = icmp eq i32 %14, 0
  %16 = load i32, ptr %9, align 4
  %17 = icmp eq i32 %16, 0
  %or.cond = select i1 %15, i1 %17, i1 false
  br i1 %or.cond, label %18, label %19

18:                                               ; preds = %7
  call void (ptr, ptr, ...) @proto_item_append_text(ptr noundef %3, ptr noundef nonnull @.str.2661)
  br label %30

19:                                               ; preds = %7
  switch i32 %14, label %29 [
    i32 0, label %20
    i32 1, label %22
    i32 2, label %23
    i32 3, label %25
    i32 4, label %26
    i32 7, label %28
  ]

20:                                               ; preds = %19
  %21 = shl i32 %16, 1
  call void (ptr, ptr, ...) @proto_item_append_text(ptr noundef %3, ptr noundef nonnull @.str.2659, i32 noundef %21)
  br label %30

22:                                               ; preds = %19
  call void (ptr, ptr, ...) @proto_item_append_text(ptr noundef %3, ptr noundef nonnull @.str.2662, i32 noundef %16)
  br label %30

23:                                               ; preds = %19
  %24 = mul i32 %16, 10
  call void (ptr, ptr, ...) @proto_item_append_text(ptr noundef %3, ptr noundef nonnull @.str.2662, i32 noundef %24)
  br label %30

25:                                               ; preds = %19
  call void (ptr, ptr, ...) @proto_item_append_text(ptr noundef %3, ptr noundef nonnull @.str.2663, i32 noundef %16)
  br label %30

26:                                               ; preds = %19
  %27 = mul i32 %16, 10
  call void (ptr, ptr, ...) @proto_item_append_text(ptr noundef %3, ptr noundef nonnull @.str.2663, i32 noundef %27)
  br label %30

28:                                               ; preds = %19
  call void (ptr, ptr, ...) @proto_item_append_text(ptr noundef %3, ptr noundef nonnull @.str.2664, i32 noundef %16)
  br label %30

29:                                               ; preds = %19
  call void (ptr, ptr, ...) @proto_item_append_text(ptr noundef %3, ptr noundef nonnull @.str.2662, i32 noundef %16)
  br label %30

30:                                               ; preds = %20, %22, %23, %25, %26, %28, %29, %18
  %31 = icmp ugt i16 %4, 1
  br i1 %31, label %32, label %34

32:                                               ; preds = %30
  %33 = call ptr @proto_tree_add_expert(ptr noundef %2, ptr noundef %1, ptr noundef nonnull @ei_pfcp_ie_data_not_decoded, ptr noundef %0, i32 noundef 1, i32 noundef -1)
  br label %34

34:                                               ; preds = %32, %30
  call void @llvm.lifetime.end.p0(i64 4, ptr nonnull %9) #15
  call void @llvm.lifetime.end.p0(i64 4, ptr nonnull %8) #15
  ret void
}